; Function Attrs: mustprogress uwtable
define void @_Z28extendStateWithOriresHistoryRK10gmx_mtop_tRK10t_inputrecP7t_state(ptr noundef nonnull align 8 dereferenceable(768) %0, ptr nocapture noundef nonnull readonly align 8 dereferenceable(856) %1, ptr noundef %2) local_unnamed_addr #0 personality ptr @__gxx_personality_v0 {
  %.not = icmp eq ptr %2, null
  br i1 %.not, label %4, label %5

4:                                                ; preds = %3
  tail call void @_ZN3gmx8internal13assertHandlerEPKcS2_S2_S2_i(ptr noundef nonnull @.str, ptr noundef nonnull @.str.1, ptr noundef nonnull @"__PRETTY_FUNCTION__._ZZ28extendStateWithOriresHistoryRK10gmx_mtop_tRK10t_inputrecP7t_stateENK3$_0clEv", ptr noundef nonnull @.str.2, i32 noundef 74) #20
  unreachable

5:                                                ; preds = %3
  %6 = tail call noundef i32 @_Z20gmx_mtop_ftype_countRK10gmx_mtop_ti(ptr noundef nonnull align 8 dereferenceable(768) %0, i32 noundef 56)
  %7 = icmp sgt i32 %6, 0
  %8 = getelementptr inbounds i8, ptr %1, i64 468
  %9 = load float, ptr %8, align 4
  %10 = fcmp ogt float %9, 0.000000e+00
  %or.cond = select i1 %7, i1 %10, i1 false
  br i1 %or.cond, label %11, label %_ZNSt6vectorIfSaIfEE6resizeEm.exit

11:                                               ; preds = %5
  tail call void @_ZN7t_state8addEntryE10StateEntry(ptr noundef nonnull align 8 dereferenceable(832) %2, i32 noundef 15)
  %12 = getelementptr inbounds i8, ptr %2, i64 720
  store float 1.000000e+00, ptr %12, align 8
  tail call void @_ZN7t_state8addEntryE10StateEntry(ptr noundef nonnull align 8 dereferenceable(832) %2, i32 noundef 16)
  %13 = getelementptr inbounds i8, ptr %2, i64 728
  %14 = mul nsw i32 %6, 5
  %15 = zext nneg i32 %14 to i64
  %16 = getelementptr inbounds i8, ptr %2, i64 736
  %17 = load ptr, ptr %16, align 8
  %18 = load ptr, ptr %13, align 8
  %19 = ptrtoint ptr %17 to i64
  %20 = ptrtoint ptr %18 to i64
  %21 = sub i64 %19, %20
  %22 = ashr exact i64 %21, 2
  %23 = icmp ult i64 %22, %15
  br i1 %23, label %24, label %26

24:                                               ; preds = %11
  %25 = sub nsw i64 %15, %22
  tail call void @_ZNSt6vectorIfSaIfEE17_M_default_appendEm(ptr noundef nonnull align 8 dereferenceable(24) %13, i64 noundef %25)
  br label %_ZNSt6vectorIfSaIfEE6resizeEm.exit

26:                                               ; preds = %11
  %27 = icmp ugt i64 %22, %15
  br i1 %27, label %28, label %_ZNSt6vectorIfSaIfEE6resizeEm.exit

28:                                               ; preds = %26
  %29 = getelementptr inbounds float, ptr %18, i64 %15
  %.not.i.i = icmp eq ptr %17, %29
  br i1 %.not.i.i, label %_ZNSt6vectorIfSaIfEE6resizeEm.exit, label %30

30:                                               ; preds = %28
  store ptr %29, ptr %16, align 8
  br label %_ZNSt6vectorIfSaIfEE6resizeEm.exit

_ZNSt6vectorIfSaIfEE6resizeEm.exit:               ; preds = %30, %28, %26, %24, %5
  ret void
}